; ModuleID = '29/1939.c'
source_filename = "29/1939.c"
target datalayout = "e-m:e-p270:32:32-p271:32:32-p272:64:64-i64:64-f80:128-n8:16:32:64-S128"
target triple = "x86_64-pc-linux-gnu"

@.str = private unnamed_addr constant [3 x i8] c"%d\00", align 1
@.str.1 = private unnamed_addr constant [7 x i8] c"2.000\0A\00", align 1
@.str.2 = private unnamed_addr constant [7 x i8] c"3.500\0A\00", align 1
@.str.3 = private unnamed_addr constant [6 x i8] c"%.3f\0A\00", align 1

; Function Attrs: noinline nounwind uwtable
define dso_local double @SUM(i32 %0) #0 {
  %2 = alloca i32, align 4
  %3 = alloca double, align 8
  %4 = alloca double, align 8
  %5 = alloca double, align 8
  %6 = alloca double, align 8
  %7 = alloca i32, align 4
  store i32 %0, i32* %2, align 4
  store double 5.000000e+00, double* %3, align 8
  store double 3.000000e+00, double* %4, align 8
  store double 3.500000e+00, double* %6, align 8
  store i32 3, i32* %7, align 4
  br label %8

8:                                                ; preds = %23, %1
  %9 = load i32, i32* %7, align 4
  %10 = load i32, i32* %2, align 4
  %11 = icmp sle i32 %9, %10
  br i1 %11, label %12, label %26

12:                                               ; preds = %8
  %13 = load double, double* %6, align 8
  %14 = load double, double* %3, align 8
  %15 = load double, double* %4, align 8
  %16 = fdiv double %14, %15
  %17 = fadd double %13, %16
  store double %17, double* %6, align 8
  %18 = load double, double* %3, align 8
  store double %18, double* %5, align 8
  %19 = load double, double* %3, align 8
  %20 = load double, double* %4, align 8
  %21 = fadd double %19, %20
  store double %21, double* %3, align 8
  %22 = load double, double* %5, align 8
  store double %22, double* %4, align 8
  br label %23

23:                                               ; preds = %12
  %24 = load i32, i32* %7, align 4
  %25 = add nsw i32 %24, 1
  store i32 %25, i32* %7, align 4
  br label %8

26:                                               ; preds = %8
  %27 = load double, double* %6, align 8
  ret double %27
}

; Function Attrs: noinline nounwind uwtable
define dso_local i32 @main() #0 {
  %1 = alloca i32, align 4
  %2 = alloca i32, align 4
  %3 = alloca i32, align 4
  %4 = alloca i32, align 4
  store i32 0, i32* %1, align 4
  %5 = call i32 (i8*, ...) @__isoc99_scanf(i8* getelementptr inbounds ([3 x i8], [3 x i8]* @.str, i64 0, i64 0), i32* %2)
  store i32 1, i32* %4, align 4
  br label %6

6:                                                ; preds = %29, %0
  %7 = load i32, i32* %4, align 4
  %8 = load i32, i32* %2, align 4
  %9 = icmp sle i32 %7, %8
  br i1 %9, label %10, label %32

10:                                               ; preds = %6
  %11 = call i32 (i8*, ...) @__isoc99_scanf(i8* getelementptr inbounds ([3 x i8], [3 x i8]* @.str, i64 0, i64 0), i32* %3)
  %12 = load i32, i32* %3, align 4
  %13 = icmp eq i32 %12, 1
  br i1 %13, label %14, label %16

14:                                               ; preds = %10
  %15 = call i32 (i8*, ...) @printf(i8* getelementptr inbounds ([7 x i8], [7 x i8]* @.str.1, i64 0, i64 0))
  br label %16

16:                                               ; preds = %14, %10
  %17 = load i32, i32* %3, align 4
  %18 = icmp eq i32 %17, 2
  br i1 %18, label %19, label %21

19:                                               ; preds = %16
  %20 = call i32 (i8*, ...) @printf(i8* getelementptr inbounds ([7 x i8], [7 x i8]* @.str.2, i64 0, i64 0))
  br label %21

21:                                               ; preds = %19, %16
  %22 = load i32, i32* %3, align 4
  %23 = icmp sge i32 %22, 3
  br i1 %23, label %24, label %28

24:                                               ; preds = %21
  %25 = load i32, i32* %3, align 4
  %26 = call double @SUM(i32 %25)
  %27 = call i32 (i8*, ...) @printf(i8* getelementptr inbounds ([6 x i8], [6 x i8]* @.str.3, i64 0, i64 0), double %26)
  br label %28

28:                                               ; preds = %24, %21
  br label %29

29:                                               ; preds = %28
  %30 = load i32, i32* %4, align 4
  %31 = add nsw i32 %30, 1
  store i32 %31, i32* %4, align 4
  br label %6

32:                                               ; preds = %6
  ret i32 0
}

declare dso_local i32 @__isoc99_scanf(i8*, ...) #1

declare dso_local i32 @printf(i8*, ...) #1


!llvm.module.flags = !{!0}
!llvm.ident = !{!1}

!0 = !{i32 1, !"wchar_size", i32 4}
!1 = !{!"clang version 10.0.0-4ubuntu1 "}
